target datalayout = "e-m:e-p270:32:32-p271:32:32-p272:64:64-i64:64-i128:128-f80:128-n8:16:32:64-S128"
target triple = "x86_64-pc-linux-gnu"

%struct.AVFilterContext = type { ptr, ptr, ptr, ptr, ptr, i32, ptr, ptr, i32, ptr, ptr, i32, i32, ptr, ptr, ptr, ptr, i32, ptr, i32, i32 }
%struct.EntropyContext = type { ptr, i32, i32, [4 x i32], [4 x i32], i32, i32, [4 x i8], [4 x i8], ptr }
%struct.AVFilterLink = type { ptr, ptr, ptr, ptr, i32, i32, i32, i32, %struct.AVRational, i32, i32, i32, %struct.AVChannelLayout, %struct.AVRational, ptr, i32, %struct.AVFilterFormatsConfig, %struct.AVFilterFormatsConfig }
%struct.AVChannelLayout = type { i32, i32, %union.anon.1, ptr }
%union.anon.1 = type { i64 }
%struct.AVRational = type { i32, i32 }
%struct.AVFilterFormatsConfig = type { ptr, ptr, ptr, ptr, ptr }
%struct.AVPixFmtDescriptor = type { ptr, i8, i8, i8, i64, [4 x %struct.AVComponentDescriptor], ptr }
%struct.AVComponentDescriptor = type { i32, i32, i32, i32, i32 }

; Function Attrs: nounwind uwtable
define internal i32 @config_input(ptr noundef %0) #1 {
  %2 = alloca i32, align 4
  %3 = alloca ptr, align 8
  %4 = alloca ptr, align 8
  %5 = alloca ptr, align 8
  %6 = alloca ptr, align 8
  %7 = alloca i32, align 4
  store ptr %0, ptr %3, align 8, !tbaa !24
  call void @llvm.lifetime.start.p0(i64 8, ptr %4) #8
  %8 = load ptr, ptr %3, align 8, !tbaa !24
  %9 = getelementptr inbounds nuw %struct.AVFilterLink, ptr %8, i32 0, i32 5
  %10 = load i32, ptr %9, align 4, !tbaa !62
  %11 = call ptr @av_pix_fmt_desc_get(i32 noundef %10)
  store ptr %11, ptr %4, align 8, !tbaa !63
  call void @llvm.lifetime.start.p0(i64 8, ptr %5) #8
  %12 = load ptr, ptr %3, align 8, !tbaa !24
  %13 = getelementptr inbounds nuw %struct.AVFilterLink, ptr %12, i32 0, i32 2
  %14 = load ptr, ptr %13, align 8, !tbaa !28
  store ptr %14, ptr %5, align 8, !tbaa !4
  call void @llvm.lifetime.start.p0(i64 8, ptr %6) #8
  %15 = load ptr, ptr %5, align 8, !tbaa !4
  %16 = getelementptr inbounds nuw %struct.AVFilterContext, ptr %15, i32 0, i32 9
  %17 = load ptr, ptr %16, align 8, !tbaa !9
  store ptr %17, ptr %6, align 8, !tbaa !22
  %18 = load ptr, ptr %4, align 8, !tbaa !63
  %19 = getelementptr inbounds nuw %struct.AVPixFmtDescriptor, ptr %18, i32 0, i32 1
  %20 = load i8, ptr %19, align 8, !tbaa !65
  %21 = zext i8 %20 to i32
  %22 = load ptr, ptr %6, align 8, !tbaa !22
  %23 = getelementptr inbounds nuw %struct.EntropyContext, ptr %22, i32 0, i32 2
  store i32 %21, ptr %23, align 4, !tbaa !38
  %24 = load ptr, ptr %4, align 8, !tbaa !63
  %25 = getelementptr inbounds nuw %struct.AVPixFmtDescriptor, ptr %24, i32 0, i32 3
  %26 = load i8, ptr %25, align 2, !tbaa !67
  %27 = call i1 @llvm.is.constant.i8(i8 %26)
  br i1 %27, label %39, label %28

28:                                               ; preds = %1
  %29 = load ptr, ptr %3, align 8, !tbaa !24
  %30 = getelementptr inbounds nuw %struct.AVFilterLink, ptr %29, i32 0, i32 7
  %31 = load i32, ptr %30, align 4, !tbaa !68
  %32 = sub nsw i32 0, %31
  %33 = load ptr, ptr %4, align 8, !tbaa !63
  %34 = getelementptr inbounds nuw %struct.AVPixFmtDescriptor, ptr %33, i32 0, i32 3
  %35 = load i8, ptr %34, align 2, !tbaa !67
  %36 = zext i8 %35 to i32
  %37 = ashr i32 %32, %36
  %38 = sub nsw i32 0, %37
  br label %55

39:                                               ; preds = %1
  %40 = load ptr, ptr %3, align 8, !tbaa !24
  %41 = getelementptr inbounds nuw %struct.AVFilterLink, ptr %40, i32 0, i32 7
  %42 = load i32, ptr %41, align 4, !tbaa !68
  %43 = load ptr, ptr %4, align 8, !tbaa !63
  %44 = getelementptr inbounds nuw %struct.AVPixFmtDescriptor, ptr %43, i32 0, i32 3
  %45 = load i8, ptr %44, align 2, !tbaa !67
  %46 = zext i8 %45 to i32
  %47 = shl i32 1, %46
  %48 = add nsw i32 %42, %47
  %49 = sub nsw i32 %48, 1
  %50 = load ptr, ptr %4, align 8, !tbaa !63
  %51 = getelementptr inbounds nuw %struct.AVPixFmtDescriptor, ptr %50, i32 0, i32 3
  %52 = load i8, ptr %51, align 2, !tbaa !67
  %53 = zext i8 %52 to i32
  %54 = ashr i32 %49, %53
  br label %55

55:                                               ; preds = %39, %28
  %56 = phi i32 [ %38, %28 ], [ %54, %39 ]
  %57 = load ptr, ptr %6, align 8, !tbaa !22
  %58 = getelementptr inbounds nuw %struct.EntropyContext, ptr %57, i32 0, i32 3
  %59 = getelementptr inbounds [4 x i32], ptr %58, i64 0, i64 2
  store i32 %56, ptr %59, align 8, !tbaa !37
  %60 = load ptr, ptr %6, align 8, !tbaa !22
  %61 = getelementptr inbounds nuw %struct.EntropyContext, ptr %60, i32 0, i32 3
  %62 = getelementptr inbounds [4 x i32], ptr %61, i64 0, i64 1
  store i32 %56, ptr %62, align 4, !tbaa !37
  %63 = load ptr, ptr %3, align 8, !tbaa !24
  %64 = getelementptr inbounds nuw %struct.AVFilterLink, ptr %63, i32 0, i32 7
  %65 = load i32, ptr %64, align 4, !tbaa !68
  %66 = load ptr, ptr %6, align 8, !tbaa !22
  %67 = getelementptr inbounds nuw %struct.EntropyContext, ptr %66, i32 0, i32 3
  %68 = getelementptr inbounds [4 x i32], ptr %67, i64 0, i64 3
  store i32 %65, ptr %68, align 4, !tbaa !37
  %69 = load ptr, ptr %6, align 8, !tbaa !22
  %70 = getelementptr inbounds nuw %struct.EntropyContext, ptr %69, i32 0, i32 3
  %71 = getelementptr inbounds [4 x i32], ptr %70, i64 0, i64 0
  store i32 %65, ptr %71, align 8, !tbaa !37
  %72 = load ptr, ptr %4, align 8, !tbaa !63
  %73 = getelementptr inbounds nuw %struct.AVPixFmtDescriptor, ptr %72, i32 0, i32 2
  %74 = load i8, ptr %73, align 1, !tbaa !69
  %75 = call i1 @llvm.is.constant.i8(i8 %74)
  br i1 %75, label %87, label %76

76:                                               ; preds = %55
  %77 = load ptr, ptr %3, align 8, !tbaa !24
  %78 = getelementptr inbounds nuw %struct.AVFilterLink, ptr %77, i32 0, i32 6
  %79 = load i32, ptr %78, align 8, !tbaa !70
  %80 = sub nsw i32 0, %79
  %81 = load ptr, ptr %4, align 8, !tbaa !63
  %82 = getelementptr inbounds nuw %struct.AVPixFmtDescriptor, ptr %81, i32 0, i32 2
  %83 = load i8, ptr %82, align 1, !tbaa !69
  %84 = zext i8 %83 to i32
  %85 = ashr i32 %80, %84
  %86 = sub nsw i32 0, %85
  br label %103

87:                                               ; preds = %55
  %88 = load ptr, ptr %3, align 8, !tbaa !24
  %89 = getelementptr inbounds nuw %struct.AVFilterLink, ptr %88, i32 0, i32 6
  %90 = load i32, ptr %89, align 8, !tbaa !70
  %91 = load ptr, ptr %4, align 8, !tbaa !63
  %92 = getelementptr inbounds nuw %struct.AVPixFmtDescriptor, ptr %91, i32 0, i32 2
  %93 = load i8, ptr %92, align 1, !tbaa !69
  %94 = zext i8 %93 to i32
  %95 = shl i32 1, %94
  %96 = add nsw i32 %90, %95
  %97 = sub nsw i32 %96, 1
  %98 = load ptr, ptr %4, align 8, !tbaa !63
  %99 = getelementptr inbounds nuw %struct.AVPixFmtDescriptor, ptr %98, i32 0, i32 2
  %100 = load i8, ptr %99, align 1, !tbaa !69
  %101 = zext i8 %100 to i32
  %102 = ashr i32 %97, %101
  br label %103

103:                                              ; preds = %87, %76
  %104 = phi i32 [ %86, %76 ], [ %102, %87 ]
  %105 = load ptr, ptr %6, align 8, !tbaa !22
  %106 = getelementptr inbounds nuw %struct.EntropyContext, ptr %105, i32 0, i32 4
  %107 = getelementptr inbounds [4 x i32], ptr %106, i64 0, i64 2
  store i32 %104, ptr %107, align 8, !tbaa !37
  %108 = load ptr, ptr %6, align 8, !tbaa !22
  %109 = getelementptr inbounds nuw %struct.EntropyContext, ptr %108, i32 0, i32 4
  %110 = getelementptr inbounds [4 x i32], ptr %109, i64 0, i64 1
  store i32 %104, ptr %110, align 4, !tbaa !37
  %111 = load ptr, ptr %3, align 8, !tbaa !24
  %112 = getelementptr inbounds nuw %struct.AVFilterLink, ptr %111, i32 0, i32 6
  %113 = load i32, ptr %112, align 8, !tbaa !70
  %114 = load ptr, ptr %6, align 8, !tbaa !22
  %115 = getelementptr inbounds nuw %struct.EntropyContext, ptr %114, i32 0, i32 4
  %116 = getelementptr inbounds [4 x i32], ptr %115, i64 0, i64 3
  store i32 %113, ptr %116, align 4, !tbaa !37
  %117 = load ptr, ptr %6, align 8, !tbaa !22
  %118 = getelementptr inbounds nuw %struct.EntropyContext, ptr %117, i32 0, i32 4
  %119 = getelementptr inbounds [4 x i32], ptr %118, i64 0, i64 0
  store i32 %113, ptr %119, align 8, !tbaa !37
  %120 = load ptr, ptr %4, align 8, !tbaa !63
  %121 = getelementptr inbounds nuw %struct.AVPixFmtDescriptor, ptr %120, i32 0, i32 5
  %122 = getelementptr inbounds [4 x %struct.AVComponentDescriptor], ptr %121, i64 0, i64 0
  %123 = getelementptr inbounds nuw %struct.AVComponentDescriptor, ptr %122, i32 0, i32 4
  %124 = load i32, ptr %123, align 8, !tbaa !71
  %125 = load ptr, ptr %6, align 8, !tbaa !22
  %126 = getelementptr inbounds nuw %struct.EntropyContext, ptr %125, i32 0, i32 5
  store i32 %124, ptr %126, align 8, !tbaa !49
  %127 = load ptr, ptr %6, align 8, !tbaa !22
  %128 = getelementptr inbounds nuw %struct.EntropyContext, ptr %127, i32 0, i32 7
  %129 = getelementptr inbounds [4 x i8], ptr %128, i64 0, i64 0
  %130 = load ptr, ptr %3, align 8, !tbaa !24
  %131 = getelementptr inbounds nuw %struct.AVFilterLink, ptr %130, i32 0, i32 5
  %132 = load i32, ptr %131, align 4, !tbaa !62
  %133 = call i32 @ff_fill_rgba_map(ptr noundef %129, i32 noundef %132)
  %134 = icmp sge i32 %133, 0
  %135 = zext i1 %134 to i32
  %136 = load ptr, ptr %6, align 8, !tbaa !22
  %137 = getelementptr inbounds nuw %struct.EntropyContext, ptr %136, i32 0, i32 6
  store i32 %135, ptr %137, align 4, !tbaa !41
  %138 = load ptr, ptr %6, align 8, !tbaa !22
  %139 = getelementptr inbounds nuw %struct.EntropyContext, ptr %138, i32 0, i32 6
  %140 = load i32, ptr %139, align 4, !tbaa !41
  %141 = icmp ne i32 %140, 0
  %142 = select i1 %141, i32 82, i32 89
  %143 = trunc i32 %142 to i8
  %144 = load ptr, ptr %6, align 8, !tbaa !22
  %145 = getelementptr inbounds nuw %struct.EntropyContext, ptr %144, i32 0, i32 8
  %146 = getelementptr inbounds [4 x i8], ptr %145, i64 0, i64 0
  store i8 %143, ptr %146, align 4, !tbaa !42
  %147 = load ptr, ptr %6, align 8, !tbaa !22
  %148 = getelementptr inbounds nuw %struct.EntropyContext, ptr %147, i32 0, i32 6
  %149 = load i32, ptr %148, align 4, !tbaa !41
  %150 = icmp ne i32 %149, 0
  %151 = select i1 %150, i32 71, i32 85
  %152 = trunc i32 %151 to i8
  %153 = load ptr, ptr %6, align 8, !tbaa !22
  %154 = getelementptr inbounds nuw %struct.EntropyContext, ptr %153, i32 0, i32 8
  %155 = getelementptr inbounds [4 x i8], ptr %154, i64 0, i64 1
  store i8 %152, ptr %155, align 1, !tbaa !42
  %156 = load ptr, ptr %6, align 8, !tbaa !22
  %157 = getelementptr inbounds nuw %struct.EntropyContext, ptr %156, i32 0, i32 6
  %158 = load i32, ptr %157, align 4, !tbaa !41
  %159 = icmp ne i32 %158, 0
  %160 = select i1 %159, i32 66, i32 86
  %161 = trunc i32 %160 to i8
  %162 = load ptr, ptr %6, align 8, !tbaa !22
  %163 = getelementptr inbounds nuw %struct.EntropyContext, ptr %162, i32 0, i32 8
  %164 = getelementptr inbounds [4 x i8], ptr %163, i64 0, i64 2
  store i8 %161, ptr %164, align 2, !tbaa !42
  %165 = load ptr, ptr %6, align 8, !tbaa !22
  %166 = getelementptr inbounds nuw %struct.EntropyContext, ptr %165, i32 0, i32 8
  %167 = getelementptr inbounds [4 x i8], ptr %166, i64 0, i64 3
  store i8 65, ptr %167, align 1, !tbaa !42
  %168 = load ptr, ptr %6, align 8, !tbaa !22
  %169 = getelementptr inbounds nuw %struct.EntropyContext, ptr %168, i32 0, i32 5
  %170 = load i32, ptr %169, align 8, !tbaa !49
  %171 = shl i32 1, %170
  %172 = sext i32 %171 to i64
  %173 = call ptr @av_malloc_array(i64 noundef %172, i64 noundef 8)
  %174 = load ptr, ptr %6, align 8, !tbaa !22
  %175 = getelementptr inbounds nuw %struct.EntropyContext, ptr %174, i32 0, i32 9
  store ptr %173, ptr %175, align 8, !tbaa !48
  %176 = load ptr, ptr %6, align 8, !tbaa !22
  %177 = getelementptr inbounds nuw %struct.EntropyContext, ptr %176, i32 0, i32 9
  %178 = load ptr, ptr %177, align 8, !tbaa !48
  %179 = icmp ne ptr %178, null
  br i1 %179, label %181, label %180

180:                                              ; preds = %103
  store i32 -12, ptr %2, align 4
  store i32 1, ptr %7, align 4
  br label %182

181:                                              ; preds = %103
  store i32 0, ptr %2, align 4
  store i32 1, ptr %7, align 4
  br label %182

182:                                              ; preds = %181, %180
  call void @llvm.lifetime.end.p0(i64 8, ptr %6) #8
  call void @llvm.lifetime.end.p0(i64 8, ptr %5) #8
  call void @llvm.lifetime.end.p0(i64 8, ptr %4) #8
  %183 = load i32, ptr %2, align 4
  ret i32 %183
}