; Function Attrs: nounwind uwtable
define internal range(i32 -12, 1) i32 @config_input(ptr noundef readonly captures(none) %0) #1 {
  %2 = getelementptr inbounds nuw i8, ptr %0, i64 36
  %3 = load i32, ptr %2, align 4, !tbaa !53
  %4 = tail call ptr @av_pix_fmt_desc_get(i32 noundef %3) #8
  %5 = getelementptr inbounds nuw i8, ptr %0, i64 16
  %6 = load ptr, ptr %5, align 8, !tbaa !20
  %7 = getelementptr inbounds nuw i8, ptr %6, i64 72
  %8 = load ptr, ptr %7, align 8, !tbaa !4
  %9 = getelementptr inbounds nuw i8, ptr %4, i64 8
  %10 = load i8, ptr %9, align 8, !tbaa !54
  %11 = zext i8 %10 to i32
  %12 = getelementptr inbounds nuw i8, ptr %8, i64 12
  store i32 %11, ptr %12, align 4, !tbaa !32
  %13 = getelementptr inbounds nuw i8, ptr %0, i64 44
  %14 = load i32, ptr %13, align 4, !tbaa !56
  %15 = sub nsw i32 0, %14
  %16 = getelementptr inbounds nuw i8, ptr %4, i64 10
  %17 = load i8, ptr %16, align 2, !tbaa !57
  %18 = zext nneg i8 %17 to i32
  %19 = ashr i32 %15, %18
  %20 = sub nsw i32 0, %19
  %21 = getelementptr inbounds nuw i8, ptr %8, i64 16
  %22 = getelementptr inbounds nuw i8, ptr %8, i64 24
  store i32 %20, ptr %22, align 8, !tbaa !38
  %23 = getelementptr inbounds nuw i8, ptr %8, i64 20
  store i32 %20, ptr %23, align 4, !tbaa !38
  %24 = getelementptr inbounds nuw i8, ptr %0, i64 44
  %25 = load i32, ptr %24, align 4, !tbaa !56
  %26 = getelementptr inbounds nuw i8, ptr %8, i64 28
  store i32 %25, ptr %26, align 4, !tbaa !38
  store i32 %25, ptr %21, align 8, !tbaa !38
  %27 = getelementptr inbounds nuw i8, ptr %0, i64 40
  %28 = load i32, ptr %27, align 8, !tbaa !58
  %29 = sub nsw i32 0, %28
  %30 = getelementptr inbounds nuw i8, ptr %4, i64 9
  %31 = load i8, ptr %30, align 1, !tbaa !59
  %32 = zext nneg i8 %31 to i32
  %33 = ashr i32 %29, %32
  %34 = sub nsw i32 0, %33
  %35 = getelementptr inbounds nuw i8, ptr %8, i64 32
  %36 = getelementptr inbounds nuw i8, ptr %8, i64 40
  store i32 %34, ptr %36, align 8, !tbaa !38
  %37 = getelementptr inbounds nuw i8, ptr %8, i64 36
  store i32 %34, ptr %37, align 4, !tbaa !38
  %38 = getelementptr inbounds nuw i8, ptr %0, i64 40
  %39 = load i32, ptr %38, align 8, !tbaa !58
  %40 = getelementptr inbounds nuw i8, ptr %8, i64 44
  store i32 %39, ptr %40, align 4, !tbaa !38
  store i32 %39, ptr %35, align 8, !tbaa !38
  %41 = getelementptr inbounds nuw i8, ptr %4, i64 40
  %42 = load i32, ptr %41, align 8, !tbaa !60
  %43 = getelementptr inbounds nuw i8, ptr %8, i64 48
  store i32 %42, ptr %43, align 8, !tbaa !40
  %44 = getelementptr inbounds nuw i8, ptr %8, i64 56
  %45 = load i32, ptr %2, align 4, !tbaa !53
  %46 = tail call i32 @ff_fill_rgba_map(ptr noundef nonnull %44, i32 noundef %45) #8
  %47 = icmp sgt i32 %46, -1
  %48 = zext i1 %47 to i32
  %49 = getelementptr inbounds nuw i8, ptr %8, i64 52
  store i32 %48, ptr %49, align 4, !tbaa !35
  %50 = select i1 %47, i8 82, i8 89
  %51 = getelementptr inbounds nuw i8, ptr %8, i64 60
  store i8 %50, ptr %51, align 4, !tbaa !36
  %52 = select i1 %47, i8 71, i8 85
  %53 = getelementptr inbounds nuw i8, ptr %8, i64 61
  store i8 %52, ptr %53, align 1, !tbaa !36
  %54 = select i1 %47, i8 66, i8 86
  %55 = getelementptr inbounds nuw i8, ptr %8, i64 62
  store i8 %54, ptr %55, align 2, !tbaa !36
  %56 = getelementptr inbounds nuw i8, ptr %8, i64 63
  store i8 65, ptr %56, align 1, !tbaa !36
  %57 = load i32, ptr %43, align 8, !tbaa !40
  %58 = shl nuw i32 1, %57
  %59 = sext i32 %58 to i64
  %60 = tail call ptr @av_malloc_array(i64 noundef %59, i64 noundef 8) #8
  %61 = getelementptr inbounds nuw i8, ptr %8, i64 64
  store ptr %60, ptr %61, align 8, !tbaa !39
  %.not42 = icmp eq ptr %60, null
  %. = select i1 %.not42, i32 -12, i32 0
  ret i32 %.
}